; Function Attrs: mustprogress nounwind uwtable
define hidden void @_ZN6hermes2vm19datetimeToISOStringEddRN4llvh15SmallVectorImplIcEE(double noundef %t, double noundef %tza, ptr noundef nonnull align 8 dereferenceable(16) %buf) local_unnamed_addr #0 {
entry:
  tail call void @_ZN6hermes2vm15dateToISOStringEddRN4llvh15SmallVectorImplIcEE(double noundef %t, double poison, ptr noundef nonnull align 8 dereferenceable(16) %buf)
  %Size.i.i.i = getelementptr inbounds i8, ptr %buf, i64 8
  %0 = load i32, ptr %Size.i.i.i, align 8
  %Capacity.i.i.i = getelementptr inbounds i8, ptr %buf, i64 12
  %1 = load i32, ptr %Capacity.i.i.i, align 4
  %cmp.not.i.i = icmp ult i32 %0, %1
  br i1 %cmp.not.i.i, label %_ZN6hermes2vmL19datetimeToISOStringEddRN4llvh15SmallVectorImplIcEEc.exit, label %if.then.i.i

if.then.i.i:                                      ; preds = %entry
  %add.ptr.i.i.i.i.i = getelementptr inbounds i8, ptr %buf, i64 16
  tail call void @_ZN4llvh15SmallVectorBase8grow_podEPvmm(ptr noundef nonnull align 8 dereferenceable(16) %buf, ptr noundef nonnull %add.ptr.i.i.i.i.i, i64 noundef 0, i64 noundef 1) #17
  %.pre.i.i = load i32, ptr %Size.i.i.i, align 8
  br label %_ZN6hermes2vmL19datetimeToISOStringEddRN4llvh15SmallVectorImplIcEEc.exit

_ZN6hermes2vmL19datetimeToISOStringEddRN4llvh15SmallVectorImplIcEEc.exit: ; preds = %entry, %if.then.i.i
  %2 = phi i32 [ %.pre.i.i, %if.then.i.i ], [ %0, %entry ]
  %3 = load ptr, ptr %buf, align 8
  %conv.i3.i.i = zext i32 %2 to i64
  %add.ptr.i.i.i = getelementptr inbounds i8, ptr %3, i64 %conv.i3.i.i
  store i8 84, ptr %add.ptr.i.i.i, align 1
  %4 = load i32, ptr %Size.i.i.i, align 8
  %add.i.i = add i32 %4, 1
  store i32 %add.i.i, ptr %Size.i.i.i, align 8
  tail call void @_ZN6hermes2vm15timeToISOStringEddRN4llvh15SmallVectorImplIcEE(double noundef %t, double noundef %tza, ptr noundef nonnull align 8 dereferenceable(16) %buf)
  ret void
}